; ModuleID = 'bench/openjdk/original/Signal.ll'
source_filename = "bench/openjdk/original/Signal.ll"
target datalayout = "e-m:e-p270:32:32-p271:32:32-p272:64:64-i64:64-i128:128-f80:128-n8:16:32:64-S128"
target triple = "x86_64-pc-linux-gnu"

@.str = private unnamed_addr constant [5 x i8] c"name\00", align 1

; Function Attrs: nounwind uwtable
define i32 @Java_jdk_internal_misc_Signal_findSignal0(ptr noundef %0, ptr nocapture noundef readnone %1, ptr noundef %2) local_unnamed_addr #0 {
  %4 = icmp eq ptr %2, null
  br i1 %4, label %5, label %6

5:                                                ; preds = %3
  tail call void @JNU_ThrowNullPointerException(ptr noundef %0, ptr noundef nonnull @.str) #2
  br label %17

6:                                                ; preds = %3
  %7 = load ptr, ptr %0, align 8
  %8 = getelementptr inbounds i8, ptr %7, i64 1352
  %9 = load ptr, ptr %8, align 8
  %10 = tail call ptr %9(ptr noundef nonnull %0, ptr noundef nonnull %2, ptr noundef null) #2
  %11 = icmp eq ptr %10, null
  br i1 %11, label %17, label %12

12:                                               ; preds = %6
  %13 = tail call i32 @JVM_FindSignal(ptr noundef nonnull %10) #2
  %14 = load ptr, ptr %0, align 8
  %15 = getelementptr inbounds i8, ptr %14, i64 1360
  %16 = load ptr, ptr %15, align 8
  tail call void %16(ptr noundef nonnull %0, ptr noundef nonnull %2, ptr noundef nonnull %10) #2
  br label %17

17:                                               ; preds = %6, %12, %5
  %.0 = phi i32 [ 0, %5 ], [ %13, %12 ], [ 0, %6 ]
  ret i32 %.0
}

declare void @JNU_ThrowNullPointerException(ptr noundef, ptr noundef) local_unnamed_addr #1

declare i32 @JVM_FindSignal(ptr noundef) local_unnamed_addr #1

; Function Attrs: nounwind uwtable
define i64 @Java_jdk_internal_misc_Signal_handle0(ptr nocapture noundef readnone %0, ptr nocapture noundef readnone %1, i32 noundef %2, i64 noundef %3) local_unnamed_addr #0 {
  %5 = inttoptr i64 %3 to ptr
  %6 = tail call ptr @JVM_RegisterSignal(i32 noundef %2, ptr noundef %5) #2
  %7 = ptrtoint ptr %6 to i64
  ret i64 %7
}

declare ptr @JVM_RegisterSignal(i32 noundef, ptr noundef) local_unnamed_addr #1

; Function Attrs: nounwind uwtable
define void @Java_jdk_internal_misc_Signal_raise0(ptr nocapture noundef readnone %0, ptr nocapture noundef readnone %1, i32 noundef %2) local_unnamed_addr #0 {
  %4 = tail call zeroext i8 @JVM_RaiseSignal(i32 noundef %2) #2
  ret void
}

declare zeroext i8 @JVM_RaiseSignal(i32 noundef) local_unnamed_addr #1


!llvm.module.flags = !{!0, !1, !2, !3, !4, !5}

!0 = !{i32 7, !"Dwarf Version", i32 5}
!1 = !{i32 2, !"Debug Info Version", i32 3}
!2 = !{i32 1, !"wchar_size", i32 4}
!3 = !{i32 8, !"PIC Level", i32 2}
!4 = !{i32 7, !"uwtable", i32 2}
!5 = !{i32 7, !"frame-pointer", i32 2}
